; Function Attrs: nounwind uwtable
define void @lv_dropdown_clear_options(ptr noundef %0) local_unnamed_addr #0 {
  %2 = getelementptr inbounds nuw i8, ptr %0, i64 88
  %3 = load ptr, ptr %2, align 8, !tbaa !12
  %4 = icmp eq ptr %3, null
  br i1 %4, label %18, label %5

5:                                                ; preds = %1
  %6 = getelementptr inbounds nuw i8, ptr %0, i64 112
  %7 = load i8, ptr %6, align 8
  %8 = and i8 %7, 16
  %9 = icmp eq i8 %8, 0
  br i1 %9, label %10, label %11

10:                                               ; preds = %5
  tail call void @lv_free(ptr noundef nonnull %3) #7
  %.pre = load i8, ptr %6, align 8
  br label %11

11:                                               ; preds = %10, %5
  %12 = phi i8 [ %.pre, %10 ], [ %7, %5 ]
  store ptr null, ptr %2, align 8, !tbaa !12
  %13 = and i8 %12, -17
  store i8 %13, ptr %6, align 8
  %14 = getelementptr inbounds nuw i8, ptr %0, i64 96
  store i32 0, ptr %14, align 8, !tbaa !18
  tail call void @lv_obj_invalidate(ptr noundef nonnull %0) #7
  %15 = getelementptr inbounds nuw i8, ptr %0, i64 64
  %16 = load ptr, ptr %15, align 8, !tbaa !3
  %.not = icmp eq ptr %16, null
  br i1 %.not, label %18, label %17

17:                                               ; preds = %11
  tail call void @lv_obj_invalidate(ptr noundef nonnull %16) #7
  br label %18

18:                                               ; preds = %11, %17, %1
  ret void
}